; Function Attrs: nounwind uwtable
define dso_local noalias ptr @_quicklistSaver(ptr noundef readonly captures(address_is_null) %0, i64 noundef %1) #1 {
  %.not = icmp eq ptr %0, null
  br i1 %.not, label %5, label %3

3:                                                ; preds = %2
  %4 = tail call noalias ptr @zmalloc(i64 noundef %1) #22
  tail call void @llvm.memcpy.p0.p0.i64(ptr align 1 %4, ptr nonnull align 1 %0, i64 %1, i1 false)
  br label %5

5:                                                ; preds = %2, %3
  %.0 = phi ptr [ %4, %3 ], [ null, %2 ]
  ret ptr %.0
}